(lp0
(lp1
I468
aI511
aI95
aI95
aI95
aI95
aI95
aI616
aI78
aI81
aI81
aI1465
aI80
aI184
aI1621
aI134
aI627
aI59
aI78
aI184
aI199
aI625
aI964
aI50
aI68
aI66
aI70
aI125
aI289
aI68
aI371
aI323
aI153
aI141
aI518
aI256
aI761
aI460
aI155
aI640
aI522
aI220
aI411
aI377
aI275
aI581
aI84
aI69
aI88
aI62
aI183
aI305
aI1053
aI256
aI312
aI348
aI753
aI62
aI312
aI321
aa(lp2
I222
aI89
aI283
aI1345
aI259
aI283
aI52
aI99
aI183
aI301
aI220
aI579
aI105
aI178
aI233
aI68
aI191
aI97
aI171
aI422
aI109
aI199
aI707
aI211
aI99
aI1446
aI83
aI2468
aI106
aI220
aI95
aI123
aI84
aI100
aI1041
aI120
aI72
aI611
aI665
aI87
aI68
aI305
aI128
aI2433
aI207
aI152
aI75
aI151
aI301
aI1480
aI72
aI166
aI305
aI611
aI126
aI240
aI193
aI87
aI408
aa(lp3
I395
aI166
aI300
aI336
aI333
aI115
aI381
aI205
aI522
aI189
aI58
aI124
aI366
aI338
aI804
aI211
aI725
aI139
aI61
aI462
aI417
aI100
aI938
aI196
aI321
aI50
aI58
aI907
aI1433
aI402
aI2619
aI93
aI126
aI83
aI158
aI1721
aI1553
aI53
aI679
aI485
aI199
aI55
aI205
aI167
aI239
aI82
aI183
aI2378
aI180
aI355
aI372
aI189
aI348
aI1328
aI108
aI113
aI1862
aI459
aI83
aI374
aa(lp4
I104
aI1306
aI918
aI189
aI182
aI750
aI206
aI475
aI1214
aI281
aI109
aI84
aI83
aI152
aI347
aI516
aI145
aI57
aI871
aI136
aI168
aI166
aI124
aI656
aI236
aI464
aI216
aI2541
aI79
aI100
aI137
aI204
aI752
aI202
aI58
aI121
aI903
aI693
aI1258
aI1615
aI195
aI99
aI199
aI274
aI116
aI153
aI73
aI313
aI452
aI165
aa(lp5
I157
aI135
aI83
aI1404
aI978
aI1261
aI1055
aI686
aI213
aI133
aI67
aI321
aI353
aI1344
aI366
aI342
aI289
aI174
aI96
aI467
aI547
aI200
aI2157
aI165
aI229
aI296
aI408
aI345
aI162
aI57
aI7147
aI302
aI1739
aI694
aI271
aI52
aI858
aI361
aI197
aI114
aI352
aI342
aI5934
aI58
aI317
aI401
aI531
aI429
aI127
aI1383
aI169
aI452
aI1338
aI361
aI206
aI391
aI343
aI153
aI418
aI825
aa.