(lp0
(lp1
Vhttps://www.washingtonpost.com/news/arts-and-entertainment/wp/2017/11/03/reporters-could-get-kicked-out-of-cma-awards-if-they-ask-country-singers-about-guns-politics/
p2
aVhttps://www.economist.com/news/leaders/21730871-facebook-google-and-twitter-were-supposed-save-politics-good-information-drove-out
p3
aVhttp://www.foxnews.com/entertainment/2017/11/03/brad-paisley-slams-cma-awards-for-restricting-press-questions-about-guns-politics.html
p4
aVhttp://www.cnn.com/POLITICS/
p5
aVhttp://edition.cnn.com/specials/politics/national-politics
p6
aVhttp://edition.cnn.com/specials/politics/politics-our-team
p7
aVhttp://www.cnn.com/2016/07/13/politics/brandon-wardell-gets-political/
p8
aVhttp://www.cnn.com/specials/politics/predict?pivit-widget-contract-id=120821&pivit-widget-id=8415&pivitSrc=election%2Finteractive-electoral-college-map
p9
aVhttps://en.wikipedia.org/wiki/Politics
p10
aVhttps://en.wikipedia.org/wiki/Politics#Etymology
p11
aVhttps://en.wikipedia.org/wiki/Politics#History_of_state_politics
p12
aVhttps://en.wikipedia.org/wiki/Politics#Themes
p13
aVhttps://en.wikipedia.org/wiki/Politics#Political_values
p14
aVhttp://www.washingtonpost.com/politics/
p15
aVhttps://www.reddit.com/r/politics/
p16
aVhttps://www.reddit.com/r/politics/new/
p17
aVhttps://www.reddit.com/r/politics/rising/
p18
aVhttps://www.reddit.com/r/politics/gilded/
p19
aVhttps://www.reddit.com/r/politics/about/moderators/
p20
aVhttps://www.merriam-webster.com/dictionary/politics
p21
aVhttps://www.theatlantic.com/politics/
p22
aVhttps://www.reuters.com/politics
p23
aVhttp://www.foxnews.com/politics.html
p24
aVhttp://www.npr.org/sections/politics/
p25
aVhttps://mobile.nytimes.com/politics/
p26
aVhttps://www.realclearpolitics.com/
p27
aVhttps://www.nbcnews.com/politics
p28
aVhttps://www.huffingtonpost.com/section/politics
p29
aVhttps://www.wsj.com/news/politics
p30
aVhttps://www.newschool.edu/nssr/politics/
p31
aVhttps://www.cbsnews.com/politics/
p32
aVhttps://www.politico.com/politics
p33
aVhttp://www.businessinsider.com/politics
p34
aVhttp://as.nyu.edu/politics.html
p35
aVhttps://www.salon.com/category/politics
p36
aVhttps://www.circa.com/news/politics
p37
aVhttps://www.bloomberg.com/politics
p38
aVhttps://fivethirtyeight.com/politics/
p39
aVhttp://www.slate.com/articles/news_and_politics/politics.html
p40
aVhttp://time.com/section/politics/
p41
aVhttp://www.washingtonexaminer.com/politics
p42
aVhttps://www.gq.com/news-culture/politics
p43
aVhttp://www.vulture.com/2017/11/press-barred-from-asking-about-politics-guns-at-cma-awards.html
p44
aVhttps://www.psychologytoday.com/basics/politics
p45
aVhttps://www.thedailybeast.com/category/politics.html
p46
aVhttps://www.aol.com/politics/
p47
aVhttp://www.latimes.com/politics/
p48
aVhttp://www.nydailynews.com/news/politics
p49
aVhttps://www.vanityfair.com/news/politics
p50
aVhttp://people.com/politics/
p51
aVhttps://www.ted.com/topics/politics
p52
aVhttps://sneakerpolitics.com/
p53
aVhttp://www.aljazeera.com/topics/categories/politics.html
p54
aVhttp://www.motherjones.com/politics/
p55
aVhttps://www.thenation.com/politics/
p56
aVhttp://www.denverpost.com/politics/
p57
aVhttps://www.msn.com/en-us/news/politics
p58
aVhttps://foreignpolicy.com/tag/politics/
p59
aVhttps://www.wired.com/tag/politics/
p60
aVhttps://www.princeton.edu/politics/
p61
aVhttp://deadline.com/category/politics/
p62
aVhttps://newrepublic.com/tags/politics
p63
aVhttp://www.bbc.com/news/politics
p64
aVhttps://www.apnews.com/tag/apf-politics
p65
aVhttp://www.miamiherald.com/news/politics-government/
p66
aVhttp://mashable.com/category/politics/
p67
aVhttps://www.vice.com/en_us/topic/politics
p68
aVhttp://classics.mit.edu/Aristotle/politics.html
p69
aVhttps://www.adn.com/section/politics/
p70
aVhttp://journals.sagepub.com/home/pol
p71
aVhttp://www.esquire.com/news-politics/politics/
p72
aVhttps://www.newsday.com/long-island/politics
p73
aVhttps://www.buzzfeed.com/politics
p74
aVhttp://www.courant.com/politics/
p75
aVhttps://www.yahoo.com/news/politics/
p76
aVhttp://www.rollingstone.com/politics
p77
aVhttp://chicagotonight.wttw.com/politics
p78
aVhttps://www.dnainfo.com/chicago/topics/politics
p79
aVhttps://www.opensecrets.org/
p80
aVhttp://www.politics-prose.com/
p81
aVhttp://dailycaller.com/section/politics/
p82
aVhttps://www.pastemagazine.com/politics
p83
aVhttps://www.statnews.com/category/politics/
p84
aVhttps://en.wiktionary.org/wiki/politics
p85
aVhttp://www.foxbusiness.com/politics.html
p86
aVhttp://www.fark.com/politics/
p87
aVhttps://www.ncronline.org/channel/politics
p88
aVhttps://www.voiceofsandiego.org/category/topics/politics/
p89
aVhttp://www.startribune.com/politics/
p90
aVhttps://www.goodreads.com/quotes/tag/politics
p91
aVhttp://crosscut.com/category/politics/
p92
aVhttps://twitter.com/hashtag/politics?lang=en
p93
aVhttp://www1.cbn.com/cbnnews/politics
p94
aVhttps://politics.ucsc.edu/
p95
aVhttps://www.theonion.com/tag/politics
p96
aVhttp://www.forbes.com/politics/
p97
aVhttp://fox13now.com/category/news/politics/
p98
aVhttp://www.washingtontimes.com/news/politics/
p99
aVhttp://www.unionleader.com/section/news06
p100
aVhttps://www.instagram.com/explore/tags/politics/?hl=en
p101
aVhttp://thehill.com/social-tags/politics
p102
aVhttps://www.dailysabah.com/politics
p103
aVhttps://steemit.com/trending/politics
p104
aVhttps://deadspin.com/tag/politics
p105
aVhttp://www.ajc.com/news/georgia-government/
p106
aVhttps://www.cnbc.com/politics/
p107
aVhttp://www.refinery29.com/politics
p108
aVhttp://www.people-press.org/quiz/political-typology/
p109
aVhttp://www.baltimoresun.com/news/maryland/politics/
p110
aVhttps://ctmirror.org/category/politics/
p111
aVhttps://www.newyorker.com/news
p112
aVhttps://grist.org/politics/
p113
aVhttp://www.cosmopolitan.com/politics/
p114
aa(lp115
Vhttp://www.astronomy.com/
p116
aVhttp://www.astronomy.com/news
p117
aVhttp://www.astronomy.com/magazine
p118
aVhttp://www.astronomy.com/photos/picture-of-day
p119
aVhttp://www.astronomy.com/observing/tonights-sky
p120
aVhttps://en.wikipedia.org/wiki/Astronomy
p121
aVhttps://en.wikipedia.org/wiki/Category:Astronomy
p122
aVhttps://en.wikipedia.org/wiki/History_of_astronomy
p123
aVhttps://en.wikipedia.org/wiki/Outline_of_astronomy
p124
aVhttps://en.wikipedia.org/wiki/Timeline_of_astronomy
p125
aVhttp://www.astronomy.com/news/2017/11/this-planet-snows-sunscreen
p126
aVhttp://www.independent.co.uk/life-style/gadgets-and-tech/news/jupiter-planet-small-star-sun-red-dwarf-ngts-1b-warwick-astronomy-formation-a8030781.html
p127
aVhttp://www.sciencemag.org/news/2017/11/hundreds-astronomers-rally-behind-whistleblowers-controversial-swiss-institute
p128
aVhttps://www.theguardian.com/science/astronomy
p129
aVhttps://www.nasa.gov/audience/forstudents/k-4/dictionary/Astronomy.html
p130
aVhttps://apod.nasa.gov/
p131
aVhttps://www.space.com/16014-astronomy.html
p132
aVhttps://www.ted.com/topics/astronomy
p133
aVhttps://astro.berkeley.edu/
p134
aVhttps://www.khanacademy.org/science/cosmology-and-astronomy
p135
aVhttp://astro.cornell.edu/
p136
aVhttps://www.inverse.com/topic/astronomy
p137
aVhttps://www.reddit.com/r/Astronomy/
p138
aVhttps://www.astrosociety.org/
p139
aVhttps://astronomynow.com/
p140
aVhttp://www.astronomycast.com/
p141
aVhttp://www.astro.illinois.edu/
p142
aVhttps://www.coursera.org/learn/astro
p143
aVhttps://aas.org/
p144
aVhttp://www.as.utexas.edu/
p145
aVhttps://www.merriam-webster.com/dictionary/astronomy
p146
aVhttps://lsa.umich.edu/astro
p147
aVhttp://astronomy.yale.edu/
p148
aVhttp://depts.washington.edu/astron/
p149
aVhttps://www.amnh.org/explore/ology/astronomy
p150
aVhttps://www.kidsastronomy.com/
p151
aVhttps://en.wiktionary.org/wiki/astronomy
p152
aVhttps://www.nsf.gov/crssprgm/reu/list_result.cfm?unitid=5045
p153
aVhttps://astronomy.osu.edu/
p154
aVhttps://www.popsci.com/tags/astronomy
p155
aVhttp://scienceworld.wolfram.com/astronomy/
p156
aVhttps://openstax.org/details/books/astronomy
p157
aVhttps://www.astroleague.org/
p158
aVhttp://www.astro.caltech.edu/
p159
aVhttp://www.ast.cam.ac.uk/
p160
aVhttp://astronomy.as.virginia.edu/
p161
aVhttps://www.timeanddate.com/topics/astronomy
p162
aVhttp://www.astro.ufl.edu/
p163
aVhttps://www.astro.umd.edu/
p164
aVhttp://www.enchantedlearning.com/subjects/astronomy/
p165
aVhttps://www.sciencedaily.com/news/space_time/astronomy/
p166
aVhttp://harrypotter.wikia.com/wiki/Astronomy
p167
aVhttps://astronomy.stackexchange.com/
p168
aVhttps://answersingenesis.org/astronomy/
p169
aVhttp://www.springer.com/us/astronomy
p170
aVhttp://www.ifa.hawaii.edu/
p171
aVhttps://www.mtholyoke.edu/acad/astronomy
p172
aVhttps://www.iau.org/
p173
aVhttps://astronomy.fas.harvard.edu/
p174
aVhttp://astronomy.case.edu/
p175
aVhttp://www.astro.wisc.edu/
p176
aVhttp://www.astronomyallies.com/
p177
aVhttp://astro.ucla.edu/
p178
aVhttp://www.bu.edu/astronomy/
p179
aVhttps://www.noao.edu/
p180
aVhttps://gizmodo.com/tag/astronomy
p181
aVhttps://www.gla.ac.uk/undergraduate/degrees/astronomy/
p182
aVhttps://denison.edu/academics/astronomy
p183
aVhttp://science.sciencemag.org/collection/astronomy
p184
aVhttps://www.nature.com/articles/s41550-017-0262-6
p185
aVhttp://www.skyandtelescope.com/astronomy-news/
p186
aVhttps://www.haverford.edu/physics-and-astronomy
p187
aVhttps://www.smith.edu/astronomy/
p188
aVhttps://public.nrao.edu/
p189
aVhttps://www.pearsonmylabandmastering.com/northamerica/masteringastronomy/
p190
aVhttp://www.go-astronomy.com/
p191
aVhttps://www.bls.gov/ooh/life-physical-and-social-science/physicists-and-astronomers.htm
p192
aVhttps://www.astronomy2009.org/
p193
aVhttps://www.astro.ucsc.edu/
p194
aVhttps://www.aanda.org/
p195
aVhttps://cosmoquest.org/x/365daysofastronomy/
p196
aVhttp://www.astronomy.ie/
p197
aVhttps://twitter.com/hashtag/astronomy?lang=en
p198
aVhttps://www.seeker.com/space/astronomy
p199
aVhttp://www.usno.navy.mil/astronomy
p200
aVhttps://www2.warwick.ac.uk/fac/sci/physics/research/astro/
p201
aVhttps://www.journals.elsevier.com/astronomy-and-computing/
p202
aVhttp://nineplanets.org/news/
p203
aVhttp://www.scouting.org/filestore/Merit_Badge_ReqandRes/Astronomy.pdf
p204
aVhttp://www.syfy.com/tags/bad-astronomy
p205
aVhttps://www.pbs.org/empires/islam/innoastronomy.html
p206
aVhttp://www.economist.com/topics/astronomy
p207
aVhttps://www.youtube.com/channel/UCg3QI9rHzPgvR7KTKSCtPHg
p208
aVhttps://science.howstuffworks.com/astronomy-channel.htm
p209
aVhttps://theconversation.com/us/topics/astronomy-50
p210
aVhttp://astronomy.wp.st-andrews.ac.uk/
p211
aVhttp://astronomy.sdsu.edu/
p212
aVhttp://www.popastro.com/
p213
aVhttp://www.annualreviews.org/journal/astro
p214
aVhttp://www.orangecoastcollege.edu/academics/divisions/math_science/astronomy/Pages/default.aspx
p215
aVhttps://www.astronomer.io/
p216
aVhttp://www.miracosta.edu/instruction/astronomy/index.html
p217
aVhttps://phys.org/space-news/astronomy/
p218
aVhttp://astro.uchicago.edu/
p219
aVhttps://www.facebook.com/Aastronomy1/
p220
aVhttps://www.open2study.com/courses/astronomy-discovering-the-universe-through-science-and-technology
p221
aVhttp://astronomyonline.org/
p222
aVhttp://www.astro.indiana.edu/
p223
aa(lp224
Vhttps://www.medi-cal.ca.gov/
p225
aVhttps://www.medi-cal.ca.gov/Eligibility/Login.asp
p226
aVhttp://www.dhcs.ca.gov/services/medi-cal/Pages/ApplyforMedi-Cal.aspx
p227
aVhttps://www.medi-cal.ca.gov/contact.asp
p228
aVhttps://www.medi-cal.ca.gov/sysstat.asp
p229
aVhttps://www.nbcnews.com/health/health-news/house-tax-bill-would-kill-medical-deductions-n817181
p230
aVhttp://thehill.com/policy/finance/358437-gop-tax-bill-would-eliminate-medical-expense-deductions
p231
aVhttp://www.mcall.com/business/healthcare/mc-biz-pa-medical-marijuana-patient-registry-20171102-story.html
p232
aVhttps://www.onemedical.com/nyc/doctors/
p233
aVhttps://www.ama-assn.org/
p234
aVhttp://www.medicaldaily.com/
p235
aVhttps://www.nymc.edu/
p236
aVhttps://www.linkedin.com/pulse/you-awaiting-setup-medical-clinic-dubai-anoop-cheerathodi
p237
aVhttps://www.tzmedical.com/
p238
aVhttp://www.alreyadamedicalco.com/
p239
aVhttp://entranceexamnepal.com/?time=1504238400
p240
aVhttps://www.medicalnewstoday.com/
p241
aVhttps://newatlas.com/medical/
p242
aVhttp://journals.lww.com/lww-medicalcare/pages/default.aspx
p243
aVhttps://www.medanswering.com/
p244
aVhttps://www.merriam-webster.com/dictionary/medical
p245
aVhttps://med.nyu.edu/education
p246
aVhttp://medicaleconomics.modernmedicine.com/
p247
aVhttps://www.hackensackumc.org/
p248
aVhttp://www.nyp.org/locations/newyork-presbyterian-weill-cornell-medical-center
p249
aVhttps://www.usnews.com/education/best-graduate-schools/top-medical-schools/articles/2017-10-31/getting-into-medical-school-is-becoming-even-harder
p250
aVhttp://weill.cornell.edu/
p251
aVhttps://www.musc.edu/
p252
aVhttps://www.rush.edu/
p253
aVhttp://medicalfuturist.com/
p254
aVhttp://www.medicalheritage.org/
p255
aVhttps://www.webmd.com/brain/ss/slideshow-medical-marijuana
p256
aVhttps://ramusa.org/
p257
aVhttps://www.karger.com/Journal/Home/224259
p258
aVhttps://en.wikipedia.org/wiki/Medicine
p259
aVhttp://www.medicalteams.org/
p260
aVhttp://www.phillymag.com/news/2017/11/01/medical-marijuana-card-pennsylvania/
p261
aVhttp://www.medicaltourismassociation.com/
p262
aVhttps://itunes.apple.com/us/genre/ios-medical/id6020?mt=8
p263
aVhttp://www.mcall.com/business/healthcare/mc-biz-medical-marijuana-update-20171101-story.html
p264
aVhttp://icahn.mssm.edu/education
p265
aVhttps://meps.ahrq.gov/
p266
aVhttp://www.tmc.edu/
p267
aVhttps://www.nlm.nih.gov/mesh/
p268
aVhttps://www.mass.gov/medical-use-of-marijuana-program
p269
aVhttp://www.freep.com/story/news/2017/11/01/medical-marijuana-dispensaries-michigan/822080001/
p270
aVhttps://www.mgma.com/
p271
aVhttp://www.tandfonline.com/loi/imte20
p272
aVhttps://www.bls.gov/ooh/healthcare/medical-assistants.htm
p273
aVhttp://www.ncsl.org/research/health/state-medical-marijuana-laws.aspx
p274
aVhttps://www.medicalmarijuanainc.com/
p275
aVhttp://www.aama-ntl.org/
p276
aVhttps://www.fda.gov/MedicalDevices/
p277
aVhttps://www.medicalrealities.com/
p278
aVhttps://www.varian.com/?multilink=switch
p279
aVhttps://hms.harvard.edu/
p280
aVhttp://www.sciencedirect.com/science/journal/13618415
p281
aVhttps://students-residents.aamc.org/applying-medical-school/applying-medical-school-process/deciding-where-apply/medical-school-admission-requirements/
p282
aVhttp://www.mlanet.org/
p283
aVhttp://wnep.com/2017/11/01/doctors-approved-to-certify-patients-for-medical-marijuana/
p284
aVhttps://www.pa.gov/guides/pennsylvania-medical-marijuana-program/
p285
aVhttps://medicalmarijuana.procon.org/view.resource.php?resourceID=000881
p286
aVhttps://www.umassmed.edu/
p287
aVhttp://jobs.nyulangone.org/
p288
aVhttp://triblive.com/local/valleynewsdispatch/12904897-74/more-than-1000-register-for-medical-marijuana-on-pennsylvanias-first-day
p289
aVhttp://www.massmed.org/
p290
aVhttp://www.businessinsider.com/trump-tax-plan-affects-on-medical-deductions-2017-11
p291
aVhttps://www.americanmedtech.org/
p292
aVhttp://www.cleveland.com/metro/index.ssf/2017/11/ohio_medical_marijuana_grow.html
p293
aVhttps://titanmedicalinc.com/
p294
aVhttp://www.tmz.com/2017/11/02/westworld-season-2-production-suspended-cast-member-medical-emergency/
p295
aVhttps://www.connecticutchildrens.org/
p296
aVhttps://medlineplus.gov/encyclopedia.html
p297
aVhttps://www.cbsnews.com/news/pennsylvania-gynecologist-liang-bartkowiak-medical-marijuana/
p298
aVhttp://www.9news.com/news/investigations/medical-cost/the-biggest-check-youve-ever-seen/488265310
p299
aVhttps://www.dol.gov/whd/fmla/
p300
aVhttp://ew.com/tv/2017/11/02/survivor-jeff-probst-heroes-hustlers-healers-episode-6/
p301
aVhttp://ew.com/tv/2017/11/02/westworld-production-suspended-medical-emergency/
p302
aVhttps://www.coveredca.com/medi-cal/
p303
aVhttps://www.medmutual.com/
p304
aVhttp://www.motherjones.com/kevin-drum/2017/11/more-charts-the-child-tax-credit-and-the-end-of-the-medical-expenses-deduction/
p305
aVhttps://www.axios.com/gop-tax-plan-would-eliminate-medical-deduction-2505542376.html
p306
aVhttp://www.stltoday.com/news/local/crime-and-courts/medical-examiner-changes-manner-of-death-for-pamela-hupp-s/article_4e9661f3-23e3-5387-a15b-5ae2c671c918.html
p307
aVhttp://www.etonline.com/westworld-temporarily-suspends-filming-after-actor-suffers-medical-emergency-90387
p308
aVhttps://secure.medicalletter.org/
p309
aVhttps://www.medicalalley.org/
p310
aVhttps://www.freseniusmedicalcare.com/
p311
aVhttp://dphhs.mt.gov/medical
p312
aVhttps://www.medicalmarijuana.ohio.gov/
p313
aVhttps://www.hopkinsmedicine.org/johns_hopkins_bayview/index.html
p314
aVhttps://medicalxpress.com/
p315
aVhttps://internationalmedicalcorps.org/emergency-response/hurricane-irma/
p316
aVhttps://travel.state.gov/content/visas/en/immigrate/immigrant-process/interview/prepare/medical-examination.html
p317
aVhttp://deadline.com/2017/11/westworld-production-suspended-actor-injury-1202200604/
p318
aVhttp://www.mlive.com/news/index.ssf/2017/11/michigan_wont_pressure_medical.html
p319
aVhttp://www.michigan.gov/lara/0,4601,7-154-79571---,00.html
p320
aVhttp://www.who.int/medical_devices/en/
p321
aVhttp://www.cumc.columbia.edu/education
p322
aVhttps://fmcna.com/
p323
aVhttps://twitter.com/hashtag/medical?lang=en
p324
aVhttps://medical-dictionary.thefreedictionary.com/
p325
aVhttps://www.10tv.com/article/ohio-picks-11-smaller-growers-medical-marijuana-program
p326
aa(lp327
Vhttps://www.youtube.com/channel/UC-9-kyTW8ZkZNDHQJ6FgpwQ
p328
aVhttps://www.youtube.com/channel/UC-9-kyTW8ZkZNDHQJ6FgpwQ/playlists
p329
aVhttps://www.youtube.com/channel/UC-9-kyTW8ZkZNDHQJ6FgpwQ/channels
p330
aVhttps://www.youtube.com/channel/UC-9-kyTW8ZkZNDHQJ6FgpwQ/about
p331
aVhttps://www.youtube.com/channel/UC-9-kyTW8ZkZNDHQJ6FgpwQ/videos?disable_polymer=1
p332
aVhttp://pigeonsandplanes.com/in-depth/2017/11/25-music-video-directors-you-should-know/
p333
aVhttp://www.billboard.com/articles/business/8022322/youtube-advertising-music-videos-monetize-streaming
p334
aVhttp://variety.com/2017/music/news/nashville-sexual-harassment-1202605064/
p335
aVhttps://music.amazon.com/
p336
aVhttps://www.yahoo.com/music/
p337
aVhttps://www.theodysseyonline.com/music-objectively-good-bad
p338
aVhttp://uk.pcmag.com/services-players-products/5359/guide/the-best-online-music-streaming-services-of-2017
p339
aVhttps://www.youtube.com/channel/UCStaiwu-FAgp_RC_tBiLh9A
p340
aVhttps://en.wikipedia.org/wiki/Music
p341
aVhttps://itunes.apple.com/us/app/musical-ly-video-social-app/id835599320?mt=8
p342
aVhttps://www.nytimes.com/section/arts/music
p343
aVhttp://www.msmnyc.edu/
p344
aVhttps://www.instagram.com/music/?hl=en
p345
aVhttps://www.highsnobiety.com/music/
p346
aVhttps://www.twitch.tv/directory/game/Music
p347
aVhttps://www.allmusic.com/
p348
aVhttps://music.avclub.com/
p349
aVhttps://www.sporcle.com/games/category/music
p350
aVhttps://lifehacker.com/the-stranger-things-2-soundtrack-is-good-work-music-1820084914
p351
aVhttps://www.pastemagazine.com/music
p352
aVhttps://www.theguardian.com/music
p353
aVhttps://www.reddit.com/r/Music/
p354
aVhttps://en.wiktionary.org/wiki/music
p355
aVhttp://ew.com/music/
p356
aVhttp://pbskids.org/daniel/games/feel-the-music/
p357
aVhttps://www.khanacademy.org/humanities/music
p358
aVhttps://www.bitchmedia.org/music
p359
aVhttps://www.buzzfeed.com/music
p360
aVhttp://www.complex.com/music/
p361
aVhttp://www.tennessean.com/music/
p362
aVhttps://music.microsoft.com/
p363
aVhttp://www.npr.org/music
p364
aVhttps://tunein.com/radio/music/
p365
aVhttps://www.christianbook.com/page/music
p366
aVhttp://www.tmz.com/category/music/
p367
aVhttps://www.msn.com/en-us/music
p368
aVhttps://www.urbanoutfitters.com/music-tech
p369
aVhttps://www.spotify.com/
p370
aVhttps://www.axs.com/tag/music
p371
aVhttp://www.digitalspy.com/music/
p372
aVhttps://twitter.com/search?q=%23music
p373
aVhttps://cart.sxsw.com/products/reg-music
p374
aVhttps://www.barnesandnoble.com/b/music/_/N-8qi
p375
aVhttp://time.com/tag/music/
p376
aVhttp://www.curtis.edu/
p377
aVhttps://www.berklee.edu/
p378
aVhttps://www.indiegogo.com/explore/music
p379
aVhttps://www.musicbed.com/
p380
aVhttps://vimeo.com/categories/music
p381
aVhttps://www.udemy.com/courses/music/
p382
aVhttps://www.hoopladigital.com/browse/music/popular
p383
aVhttps://music.stanford.edu/
p384
aVhttps://www.music.org/
p385
aVhttps://www.cim.edu/
p386
aVhttps://music.rice.edu/
p387
aVhttps://music.stackexchange.com/
p388
aVhttps://www.kickstarter.com/discover/categories/music
p389
aVhttps://www.rcmusic.com/
p390
aVhttps://www.marmosetmusic.com/
p391
aVhttp://www.latimes.com/entertainment/music/
p392
aVhttps://www.ted.com/topics/music
p393
aVhttps://mim.org/
p394
aVhttps://voyager.jpl.nasa.gov/golden-record/whats-on-the-record/music/
p395
aVhttps://www.cde.ca.gov/be/st/ss/mumain.asp
p396
aVhttp://www.gettyimages.com/music
p397
aVhttp://www.rollingstone.com/music
p398
aVhttps://www.digitaltrends.com/music/
p399
aVhttp://www.music.indiana.edu/
p400
aVhttp://longy.edu/
p401
aVhttp://www.pro-music.org/
p402
aVhttp://www.ticketmaster.com/section/concerts
p403
aVhttps://www.esm.rochester.edu/
p404
aVhttp://www.citypages.com/music
p405
aVhttps://sfcm.edu/
p406
aVhttps://www.bostonglobe.com/arts/music
p407
aVhttps://www.behance.net/search?field=64
p408
aVhttps://themify.me/themes/music
p409
aVhttps://www.theverge.com/2015/11/12/9723496/youtube-music-app-offline-background
p410
aVhttps://pitchfork.com/best/
p411
aVhttp://www.openculture.com/category/music
p412
aVhttp://musicforrelief.org/
p413
aVhttps://www.vox.com/culture/2017/10/31/16403212/october-new-music-9-standout-releases
p414
aVhttp://www.news.com.au/finance/work/at-work/take-the-headphones-out-and-let-the-culture-in-experts-say-office-music-can-boost-productivity/news-story/15e758e279ee72ede0ef5e92c0b65ae6
p415
aVhttps://www.musicforcats.com/
p416
aVhttps://www.musictogether.com/
p417
aVhttp://aolradio.slacker.com/
p418
aVhttps://www.pandora.com/
p419
aVhttp://www.imdb.com/genre/music
p420
aVhttps://myspace.com/discover/songs
p421
aVhttps://www.last.fm/music
p422
aVhttps://www.techstars.com/programs/music-program/
p423
aVhttps://musicandmemory.org/
p424
aVhttps://cashmusic.org/
p425
aVhttps://www.kcrw.com/music
p426
aVhttps://www.wired.com/tag/music/
p427
aVhttps://www.chicagoreader.com/chicago/music/Section?oid=846991
p428
aVhttp://www.metacritic.com/music
p429
aVhttps://www.musicarts.com/
p430
aa(lp431
Vhttp://www.cnn.com/2017/11/02/sport/houston-astros-sports-illustrated-cover-trnd/index.html
p432
aVhttp://www.espn.com/mlb/story/_/id/21261965/collectors-coveting-sports-illustrated-cover-predicting-houston-astros-title
p433
aVhttp://www.golf.com/knockdown/2017/11/02/turns-out-now-famous-sports-illustrated-astros-cover-was-supposed-feature-michelle-wie
p434
aVhttps://www.msn.com/en-us/sports
p435
aVhttps://www.msn.com/en-us/sports/nfl
p436
aVhttps://www.msn.com/en-us/sports/mlb
p437
aVhttps://www.msn.com/en-us/sports/ncaafb
p438
aVhttps://www.msn.com/en-us/sports/nba
p439
aVhttps://www.foxsports.com/
p440
aVhttp://www.espn.com/
p441
aVhttp://www.espn.com/college-football/
p442
aVhttp://www.espn.com/nfl/
p443
aVhttp://www.espn.com/mlb/
p444
aVhttp://www.espn.com/nba/
p445
aVhttps://www.si.com/
p446
aVhttp://nypost.com/sports/
p447
aVhttps://www.cbssports.com/
p448
aVhttps://www.usatoday.com/sports/
p449
aVhttps://sports.yahoo.com/
p450
aVhttps://www.nytimes.com/section/sports
p451
aVhttp://www.foxnews.com/sports.html
p452
aVhttps://www.youtube.com/channel/UCEgdi0XIXXZ-qJOFPf4JSKw
p453
aVhttp://www.washingtonpost.com/sports/
p454
aVhttp://www.latimes.com/sports/
p455
aVhttps://en.wikipedia.org/wiki/Sport
p456
aVhttps://www.boston.com/section/sports
p457
aVhttps://www.sporcle.com/games/category/sports
p458
aVhttps://www.theguardian.com/us/sport
p459
aVhttp://abcnews.go.com/Sports
p460
aVhttp://www.philly.com/philly/sports/
p461
aVhttp://www.nydailynews.com/sports
p462
aVhttps://www.theonion.com/tag/sports
p463
aVhttp://www.cleveland.com/sports/
p464
aVhttp://www.wsj.com/news/life-arts/sports
p465
aVhttp://www.miamiherald.com/sports/
p466
aVhttps://www.reuters.com/news/sports
p467
aVhttp://www.chicagotribune.com/sports/
p468
aVhttps://twitter.com/hashtag/sports?lang=en
p469
aVhttp://www.npr.org/sections/sports/
p470
aVhttp://www.gainesville.com/sports
p471
aVhttps://theundefeated.com/sports/
p472
aVhttps://www.apnews.com/tag/apf-sports
p473
aVhttp://www.stltoday.com/sports/
p474
aVhttps://chicago.suntimes.com/section/sports/
p475
aVhttps://www.cincinnati.com/sports/
p476
aVhttp://www.twincities.com/sports/
p477
aVhttp://www.sfgate.com/sports/
p478
aVhttp://www.tallahassee.com/sports/
p479
aVhttps://www.seattletimes.com/sports/
p480
aVhttp://www.bostonherald.com/sports
p481
aVhttps://www.reddit.com/r/sports/
p482
aVhttp://www.azfamily.com/category/288183/sports
p483
aVhttps://www.instagram.com/explore/tags/sports/?hl=en
p484
aVhttps://www.psychologytoday.com/basics/sport-and-competition
p485
aVhttps://itunes.apple.com/us/genre/ios-sports/id6004?mt=8
p486
aVhttps://fivethirtyeight.com/sports/
p487
aVhttp://www.northjersey.com/sports/
p488
aVhttp://www.denverpost.com/sports/
p489
aVhttp://www.mcall.com/sports/
p490
aVhttp://kdvr.com/category/sports/
p491
aVhttp://www.sandiegouniontribune.com/sports/
p492
aVhttp://www.wfaa.com/sports
p493
aVhttps://www.ted.com/topics/sports
p494
aVhttp://www.kansascity.com/sports/
p495
aVhttp://www.elpasotimes.com/sports/
p496
aVhttp://www.mystatesman.com/sports/
p497
aVhttps://www.reviewjournal.com/sports/
p498
aVhttp://www.jsonline.com/sports/
p499
aVhttps://www.huffingtonpost.com/section/sports
p500
aVhttp://www.daytondailynews.com/sports/
p501
aVhttp://dailybruin.com/category/sports/
p502
aVhttp://www.wafb.com/category/4183/sports
p503
aVhttps://www.dickssportinggoods.com/
p504
aVhttp://fox4kc.com/category/news/sports/
p505
aVhttps://www.local10.com/sports
p506
aVhttp://www.tennessean.com/sports/
p507
aVhttp://www.ocregister.com/sports/
p508
aVhttp://www.ticketmaster.com/section/sports
p509
aVhttp://www.pressdemocrat.com/sports/
p510
aVhttp://www.detroitnews.com/sports/
p511
aVhttp://www.sacbee.com/sports/
p512
aVhttps://hypebeast.com/sports
p513
aVhttp://www.baltimoresun.com/sports/
p514
aVhttps://www.click2houston.com/sports
p515
aVhttp://www.oregonlive.com/sports/
p516
aVhttp://www.nj.com/sports/
p517
aVhttp://www.mlive.com/sports/
p518
aVhttp://www.marinij.com/sports?PHPSESSID=ed33add33c1830e2603840999d66608e
p519
aVhttp://www.dailyherald.com/sports/
p520
aVhttp://www.wkow.com/category/123754/sports
p521
aVhttps://www.indystar.com/sports/
p522
aVhttp://www.aljazeera.com/topics/categories/sport.html
p523
aVhttp://www.kgw.com/sports
p524
aVhttps://channelstore.roku.com/browse/sports
p525
aVhttp://www.lansingstatejournal.com/sports/
p526
aVhttps://www.amazon.com/Sports-Fitness/b?ie=UTF8&node=10971181011
p527
aVhttps://www.sikids.com/
p528
aVhttp://abc13.com/sports/
p529
aVhttp://www.democratandchronicle.com/sports/
p530
aVhttps://www.stubhub.com/sports-tickets/category/28/
p531
aVhttp://www.dispatch.com/sports
p532
aVhttp://fox2now.com/category/sports/
p533
aVhttp://www.dw.com/en/top-stories/sports/s-8171
p534
aVhttp://kfor.com/category/sports/
p535
aVhttp://www.desmoinesregister.com/sports/
p536
aVhttps://www.foxsportsgo.com/
p537
aVhttps://www.thenation.com/subject/sports/
p538
aVhttp://wgnradio.com/category/sports/
p539
aa.